target datalayout = "e-m:e-p270:32:32-p271:32:32-p272:64:64-i64:64-i128:128-f80:128-n8:16:32:64-S128"
target triple = "x86_64-pc-linux-gnu"

; Function Attrs: mustprogress uwtable
define noundef i32 @_ZN5folly6detail9crc32c_swEPKhmj(ptr noundef %0, i64 noundef %1, i32 noundef %2) #0 {
  %4 = alloca ptr, align 8
  %5 = alloca i64, align 8
  %6 = alloca i32, align 4
  %7 = alloca i32, align 4
  store ptr %0, ptr %4, align 8, !tbaa !7
  store i64 %1, ptr %5, align 8, !tbaa !12
  store i32 %2, ptr %6, align 4, !tbaa !14
  call void @llvm.lifetime.start.p0(i64 4, ptr %7) #6
  store i32 517762881, ptr %7, align 4, !tbaa !14
  %8 = load ptr, ptr %4, align 8, !tbaa !7
  %9 = load i64, ptr %5, align 8, !tbaa !12
  %10 = load i32, ptr %6, align 4, !tbaa !14
  %11 = call noundef i32 @_ZN5folly6detail6crc_swILj517762881EEEjPKhmj(ptr noundef %8, i64 noundef %9, i32 noundef %10)
  call void @llvm.lifetime.end.p0(i64 4, ptr %7) #6
  ret i32 %11
}

; Function Attrs: mustprogress nounwind uwtable
define noundef zeroext i1 @_ZN5folly6detail19crc32c_hw_supportedEv() #3 {
  ret i1 false
}

; Function Attrs: mustprogress uwtable
define noundef i32 @_ZN5folly6crc32cEPKhmj(ptr noundef %0, i64 noundef %1, i32 noundef %2) #0 {
  %4 = alloca i32, align 4
  %5 = alloca ptr, align 8
  %6 = alloca i64, align 8
  %7 = alloca i32, align 4
  store ptr %0, ptr %5, align 8, !tbaa !7
  store i64 %1, ptr %6, align 8, !tbaa !12
  store i32 %2, ptr %7, align 4, !tbaa !14
  %8 = call noundef zeroext i1 @_ZN5folly6detail19crc32c_hw_supportedEv()
  br i1 %8, label %9, label %14

9:                                                ; preds = %3
  %10 = load ptr, ptr %5, align 8, !tbaa !7
  %11 = load i64, ptr %6, align 8, !tbaa !12
  %12 = load i32, ptr %7, align 4, !tbaa !14
  %13 = call noundef i32 @_ZN5folly6detail9crc32c_hwEPKhmj(ptr noundef %10, i64 noundef %11, i32 noundef %12)
  store i32 %13, ptr %4, align 4
  br label %19

14:                                               ; preds = %3
  %15 = load ptr, ptr %5, align 8, !tbaa !7
  %16 = load i64, ptr %6, align 8, !tbaa !12
  %17 = load i32, ptr %7, align 4, !tbaa !14
  %18 = call noundef i32 @_ZN5folly6detail9crc32c_swEPKhmj(ptr noundef %15, i64 noundef %16, i32 noundef %17)
  store i32 %18, ptr %4, align 4
  br label %19

19:                                               ; preds = %14, %9
  %20 = load i32, ptr %4, align 4
  ret i32 %20
}

; Function Attrs: mustprogress uwtable
define noundef i32 @_ZN5folly14crc32c_combineEjjm(i32 noundef %0, i32 noundef %1, i64 noundef %2) #0 {
  %4 = alloca i32, align 4
  %5 = alloca i32, align 4
  %6 = alloca i32, align 4
  %7 = alloca i64, align 8
  %8 = alloca [4 x i8], align 1
  %9 = alloca i64, align 8
  %10 = alloca i32, align 4
  store i32 %0, ptr %5, align 4, !tbaa !14
  store i32 %1, ptr %6, align 4, !tbaa !14
  store i64 %2, ptr %7, align 8, !tbaa !12
  call void @llvm.lifetime.start.p0(i64 4, ptr %8) #6
  call void @llvm.memset.p0.i64(ptr align 1 %8, i8 0, i64 4, i1 false)
  call void @llvm.lifetime.start.p0(i64 8, ptr %9) #6
  %11 = load i64, ptr %7, align 8, !tbaa !12
  %12 = and i64 %11, 3
  store i64 %12, ptr %9, align 8, !tbaa !12
  %13 = load i64, ptr %9, align 8, !tbaa !12
  %14 = icmp ne i64 %13, 0
  br i1 %14, label %15, label %20

15:                                               ; preds = %3
  %16 = getelementptr inbounds [4 x i8], ptr %8, i64 0, i64 0
  %17 = load i64, ptr %9, align 8, !tbaa !12
  %18 = load i32, ptr %5, align 4, !tbaa !14
  %19 = call noundef i32 @_ZN5folly6crc32cEPKhmj(ptr noundef %16, i64 noundef %17, i32 noundef %18)
  store i32 %19, ptr %5, align 4, !tbaa !14
  br label %20

20:                                               ; preds = %15, %3
  %21 = call noundef zeroext i1 @_ZN5folly6detail19crc32c_hw_supportedEv()
  br i1 %21, label %22, label %29

22:                                               ; preds = %20
  %23 = load i32, ptr %5, align 4, !tbaa !14
  %24 = load i32, ptr %6, align 4, !tbaa !14
  %25 = load i64, ptr %7, align 8, !tbaa !12
  %26 = load i64, ptr %9, align 8, !tbaa !12
  %27 = sub i64 %25, %26
  %28 = call noundef i32 @_ZN5folly6detail17crc32c_combine_hwEjjm(i32 noundef %23, i32 noundef %24, i64 noundef %27)
  store i32 %28, ptr %4, align 4
  store i32 1, ptr %10, align 4
  br label %36

29:                                               ; preds = %20
  %30 = load i32, ptr %5, align 4, !tbaa !14
  %31 = load i32, ptr %6, align 4, !tbaa !14
  %32 = load i64, ptr %7, align 8, !tbaa !12
  %33 = load i64, ptr %9, align 8, !tbaa !12
  %34 = sub i64 %32, %33
  %35 = call noundef i32 @_ZN5folly6detail17crc32c_combine_swEjjm(i32 noundef %30, i32 noundef %31, i64 noundef %34)
  store i32 %35, ptr %4, align 4
  store i32 1, ptr %10, align 4
  br label %36

36:                                               ; preds = %29, %22
  call void @llvm.lifetime.end.p0(i64 8, ptr %9) #6
  call void @llvm.lifetime.end.p0(i64 4, ptr %8) #6
  %37 = load i32, ptr %4, align 4
  ret i32 %37
}